(dp0
Vengine
p1
S'pdflatex'
p2
sVpackages
p3
c__builtin__
set
p4
((lp5
Vauthblk
p6
aVfancyhdr
p7
aVgeometry
p8
aVbiblatex
p9
aVnicefrac
p10
aVsubcaption
p11
aVcaption
p12
aVepstopdf
p13
aVgraphicx
p14
aVlastpage
p15
atp16
Rp17
sVfiles_with_guttermarks
p18
g4
((lp19
V/Users/brianlibgober/Dropbox/Collaborations/Traffic/Paper Drafts/Paper Draft - Publication Prep/Sections/RD_Subsections/Weather.tex
p20
aV/Users/brianlibgober/Dropbox/Collaborations/Traffic/Paper Drafts/Paper Draft - Publication Prep/Sections/Literature_Review.tex
p21
aV/Users/brianlibgober/Dropbox/Collaborations/Traffic/Paper Drafts/Paper Draft - Publication Prep/./Sections/RD.tex
p22
aV/Users/brianlibgober/Dropbox/Collaborations/Traffic/Paper Drafts/Paper Draft - Publication Prep/Sections/RD_Subsections/Heatmap.tex
p23
aV/Users/brianlibgober/Dropbox/Collaborations/Traffic/Paper Drafts/Paper Draft - Publication Prep/./Sections/RD_Subsections/Weather.tex
p24
aV/Users/brianlibgober/Dropbox/Collaborations/Traffic/Paper Drafts/Paper Draft - Publication Prep/Sections/RD_Subsections/RDLogic.tex
p25
aS'traffic_draft10.tex'
p26
aV/Users/brianlibgober/Dropbox/Collaborations/Traffic/Paper Drafts/Paper Draft - Publication Prep/./traffic_draft10.tex
p27
aV/Users/brianlibgober/Dropbox/Collaborations/Traffic/Paper Drafts/Paper Draft - Publication Prep/Sections/RD_Subsections/Data.tex
p28
aV/Users/brianlibgober/Dropbox/Collaborations/Traffic/Paper Drafts/Paper Draft - Publication Prep/./Sections/RD_Subsections/Heatmap.tex
p29
aV/Users/brianlibgober/Dropbox/Collaborations/Traffic/Paper Drafts/Paper Draft - Publication Prep/./Sections/RD_Subsections/Race.tex
p30
aV/Users/brianlibgober/Dropbox/Collaborations/Traffic/Paper Drafts/Paper Draft - Publication Prep/Sections/RD_Subsections/Race.tex
p31
atp32
Rp33
sVsynctex
p34
I01
s.