(dp0
Vengine
p1
S'pdflatex'
p2
sVpackages
p3
c__builtin__
set
p4
((lp5
Vauthblk
p6
aVtitlesec
p7
aVnicefrac
p8
aVgeometry
p9
aVbiblatex
p10
aVlastpage
p11
aVfancyhdr
p12
aVmultirow
p13
aVamssymb
p14
aVepstopdf
p15
aVcaption
p16
aVgraphicx
p17
aVsubcaption
p18
aVvarioref
p19
atp20
Rp21
sVfiles_with_guttermarks
p22
g4
((lp23
V/Users/brianlibgober/Dropbox/Collaborations/Traffic/Paper Drafts/paper draft - publication prep/Sections/RD_Subsections/BalanceTable.tex
p24
aV/Users/brianlibgober/Dropbox/Collaborations/Traffic/Paper Drafts/paper draft - publication prep/Sections/RD_Subsections/Weather.tex
p25
aV/Users/brianlibgober/Dropbox/Collaborations/Traffic/Paper Drafts/paper draft - publication prep/Sections/Literature_Review.tex
p26
aS'traffic_draft10.tex'
p27
aV/Users/brianlibgober/Dropbox/Collaborations/Traffic/Paper Drafts/paper draft - publication prep/Sections/Conclusion.tex
p28
aV/Users/brianlibgober/Dropbox/Collaborations/Traffic/Paper Drafts/paper draft - publication prep/./Sections/Appendix.tex
p29
aV/Users/brianlibgober/Dropbox/Collaborations/Traffic/Paper Drafts/paper draft - publication prep/./Sections/RD_Subsections/Weather.tex
p30
aV/Users/brianlibgober/Dropbox/Collaborations/Traffic/Paper Drafts/paper draft - publication prep/Sections/RD_Subsections/RDLogic.tex
p31
aV/Users/brianlibgober/Dropbox/Collaborations/Traffic/Paper Drafts/paper draft - publication prep/Sections/RD_Subsections/IVTable.tex
p32
aV/Users/brianlibgober/Dropbox/Collaborations/Traffic/Paper Drafts/paper draft - publication prep/Sections/RD_Subsections/CommunityChange.tex
p33
aV/Users/brianlibgober/Dropbox/Collaborations/Traffic/Paper Drafts/paper draft - publication prep/./traffic_draft10.tex
p34
aV/Users/brianlibgober/Dropbox/Collaborations/Traffic/Paper Drafts/paper draft - publication prep/Sections/RD_Subsections/Data.tex
p35
aV/Users/brianlibgober/Dropbox/Collaborations/Traffic/Paper Drafts/paper draft - publication prep/Sections/Discussion.tex
p36
aV/Users/brianlibgober/Dropbox/Collaborations/Traffic/Paper Drafts/paper draft - publication prep/./Sections/RD_Subsections/PlaceboTable.tex
p37
aV/Users/brianlibgober/Dropbox/Collaborations/Traffic/Paper Drafts/paper draft - publication prep/Sections/Appendix.tex
p38
aV/Users/brianlibgober/Dropbox/Collaborations/Traffic/Paper Drafts/paper draft - publication prep/Sections/model.tex
p39
aV/Users/brianlibgober/Dropbox/Collaborations/Traffic/Paper Drafts/paper draft - publication prep/Sections/RD_Subsections/DifDifTable.tex
p40
atp41
Rp42
sVsynctex
p43
I01
s.